
TP3.elf:     file format elf32-avr

Sections:
Idx Name          Size      VMA       LMA       File off  Algn
  0 .data         000000ea  00800100  00000400  00000494  2**0
                  CONTENTS, ALLOC, LOAD, DATA
  1 .text         00000400  00000000  00000000  00000094  2**1
                  CONTENTS, ALLOC, LOAD, READONLY, CODE
  2 .bss          00000018  008001ea  008001ea  0000057e  2**0
                  ALLOC
  3 .comment      00000030  00000000  00000000  0000057e  2**0
                  CONTENTS, READONLY
  4 .note.gnu.avr.deviceinfo 00000040  00000000  00000000  000005b0  2**2
                  CONTENTS, READONLY
  5 .debug_aranges 000000c8  00000000  00000000  000005f0  2**0
                  CONTENTS, READONLY, DEBUGGING
  6 .debug_info   00000d13  00000000  00000000  000006b8  2**0
                  CONTENTS, READONLY, DEBUGGING
  7 .debug_abbrev 00000857  00000000  00000000  000013cb  2**0
                  CONTENTS, READONLY, DEBUGGING
  8 .debug_line   0000065c  00000000  00000000  00001c22  2**0
                  CONTENTS, READONLY, DEBUGGING
  9 .debug_frame  00000234  00000000  00000000  00002280  2**2
                  CONTENTS, READONLY, DEBUGGING
 10 .debug_str    0000057a  00000000  00000000  000024b4  2**0
                  CONTENTS, READONLY, DEBUGGING
 11 .debug_loc    00000559  00000000  00000000  00002a2e  2**0
                  CONTENTS, READONLY, DEBUGGING
 12 .debug_ranges 000000d8  00000000  00000000  00002f87  2**0
                  CONTENTS, READONLY, DEBUGGING

Disassembly of section .text:

00000000 <__vectors>:
   0:	0c 94 34 00 	jmp	0x68	; 0x68 <__ctors_end>
   4:	0c 94 51 00 	jmp	0xa2	; 0xa2 <__bad_interrupt>
   8:	0c 94 51 00 	jmp	0xa2	; 0xa2 <__bad_interrupt>
   c:	0c 94 51 00 	jmp	0xa2	; 0xa2 <__bad_interrupt>
  10:	0c 94 51 00 	jmp	0xa2	; 0xa2 <__bad_interrupt>
  14:	0c 94 51 00 	jmp	0xa2	; 0xa2 <__bad_interrupt>
  18:	0c 94 51 00 	jmp	0xa2	; 0xa2 <__bad_interrupt>
  1c:	0c 94 51 00 	jmp	0xa2	; 0xa2 <__bad_interrupt>
  20:	0c 94 51 00 	jmp	0xa2	; 0xa2 <__bad_interrupt>
  24:	0c 94 51 00 	jmp	0xa2	; 0xa2 <__bad_interrupt>
  28:	0c 94 51 00 	jmp	0xa2	; 0xa2 <__bad_interrupt>
  2c:	0c 94 51 00 	jmp	0xa2	; 0xa2 <__bad_interrupt>
  30:	0c 94 51 00 	jmp	0xa2	; 0xa2 <__bad_interrupt>
  34:	0c 94 51 00 	jmp	0xa2	; 0xa2 <__bad_interrupt>
  38:	0c 94 51 00 	jmp	0xa2	; 0xa2 <__bad_interrupt>
  3c:	0c 94 51 00 	jmp	0xa2	; 0xa2 <__bad_interrupt>
  40:	0c 94 51 00 	jmp	0xa2	; 0xa2 <__bad_interrupt>
  44:	0c 94 51 00 	jmp	0xa2	; 0xa2 <__bad_interrupt>
  48:	0c 94 53 00 	jmp	0xa6	; 0xa6 <__vector_18>
  4c:	0c 94 7e 00 	jmp	0xfc	; 0xfc <__vector_19>
  50:	0c 94 51 00 	jmp	0xa2	; 0xa2 <__bad_interrupt>
  54:	0c 94 51 00 	jmp	0xa2	; 0xa2 <__bad_interrupt>
  58:	0c 94 51 00 	jmp	0xa2	; 0xa2 <__bad_interrupt>
  5c:	0c 94 51 00 	jmp	0xa2	; 0xa2 <__bad_interrupt>
  60:	0c 94 51 00 	jmp	0xa2	; 0xa2 <__bad_interrupt>
  64:	0c 94 51 00 	jmp	0xa2	; 0xa2 <__bad_interrupt>

00000068 <__ctors_end>:
  68:	11 24       	eor	r1, r1
  6a:	1f be       	out	0x3f, r1	; 63
  6c:	cf ef       	ldi	r28, 0xFF	; 255
  6e:	d8 e0       	ldi	r29, 0x08	; 8
  70:	de bf       	out	0x3e, r29	; 62
  72:	cd bf       	out	0x3d, r28	; 61

00000074 <__do_copy_data>:
  74:	11 e0       	ldi	r17, 0x01	; 1
  76:	a0 e0       	ldi	r26, 0x00	; 0
  78:	b1 e0       	ldi	r27, 0x01	; 1
  7a:	e0 e0       	ldi	r30, 0x00	; 0
  7c:	f4 e0       	ldi	r31, 0x04	; 4
  7e:	02 c0       	rjmp	.+4      	; 0x84 <__do_copy_data+0x10>
  80:	05 90       	lpm	r0, Z+
  82:	0d 92       	st	X+, r0
  84:	aa 3e       	cpi	r26, 0xEA	; 234
  86:	b1 07       	cpc	r27, r17
  88:	d9 f7       	brne	.-10     	; 0x80 <__do_copy_data+0xc>

0000008a <__do_clear_bss>:
  8a:	22 e0       	ldi	r18, 0x02	; 2
  8c:	aa ee       	ldi	r26, 0xEA	; 234
  8e:	b1 e0       	ldi	r27, 0x01	; 1
  90:	01 c0       	rjmp	.+2      	; 0x94 <.do_clear_bss_start>

00000092 <.do_clear_bss_loop>:
  92:	1d 92       	st	X+, r1

00000094 <.do_clear_bss_start>:
  94:	a2 30       	cpi	r26, 0x02	; 2
  96:	b2 07       	cpc	r27, r18
  98:	e1 f7       	brne	.-8      	; 0x92 <.do_clear_bss_loop>
  9a:	0e 94 52 01 	call	0x2a4	; 0x2a4 <main>
  9e:	0c 94 fe 01 	jmp	0x3fc	; 0x3fc <_exit>

000000a2 <__bad_interrupt>:
  a2:	0c 94 00 00 	jmp	0	; 0x0 <__vectors>

000000a6 <__vector_18>:
	}
	return 0;
}

ISR (USART_RX_vect)
{
  a6:	1f 92       	push	r1
  a8:	0f 92       	push	r0
  aa:	0f b6       	in	r0, 0x3f	; 63
  ac:	0f 92       	push	r0
  ae:	11 24       	eor	r1, r1
  b0:	8f 93       	push	r24
  b2:	ef 93       	push	r30
  b4:	ff 93       	push	r31
	
	static volatile uint8_t i = 0;
	unsigned char dato;
	
	dato = UDR0;
  b6:	80 91 c6 00 	lds	r24, 0x00C6	; 0x8000c6 <__DATA_REGION_ORIGIN__+0x66>
	
	if (dato == '\r')
  ba:	8d 30       	cpi	r24, 0x0D	; 13
  bc:	61 f4       	brne	.+24     	; 0xd6 <__vector_18+0x30>
	{
		buffer[i] = '\0';
  be:	e0 91 ec 01 	lds	r30, 0x01EC	; 0x8001ec <i.2271>
  c2:	f0 e0       	ldi	r31, 0x00	; 0
  c4:	e3 51       	subi	r30, 0x13	; 19
  c6:	fe 4f       	sbci	r31, 0xFE	; 254
  c8:	10 82       	st	Z, r1
		//SerialPort_TX_Interrupt_Enable();
		i=0;
  ca:	10 92 ec 01 	sts	0x01EC, r1	; 0x8001ec <i.2271>
		accion_flag = 1;
  ce:	81 e0       	ldi	r24, 0x01	; 1
  d0:	80 93 01 02 	sts	0x0201, r24	; 0x800201 <accion_flag>
  d4:	0b c0       	rjmp	.+22     	; 0xec <__vector_18+0x46>
	}
	else
	{
		buffer[i] = dato;
  d6:	e0 91 ec 01 	lds	r30, 0x01EC	; 0x8001ec <i.2271>
  da:	f0 e0       	ldi	r31, 0x00	; 0
  dc:	e3 51       	subi	r30, 0x13	; 19
  de:	fe 4f       	sbci	r31, 0xFE	; 254
  e0:	80 83       	st	Z, r24
		i++;
  e2:	80 91 ec 01 	lds	r24, 0x01EC	; 0x8001ec <i.2271>
  e6:	8f 5f       	subi	r24, 0xFF	; 255
  e8:	80 93 ec 01 	sts	0x01EC, r24	; 0x8001ec <i.2271>
	}
	
	
}
  ec:	ff 91       	pop	r31
  ee:	ef 91       	pop	r30
  f0:	8f 91       	pop	r24
  f2:	0f 90       	pop	r0
  f4:	0f be       	out	0x3f, r0	; 63
  f6:	0f 90       	pop	r0
  f8:	1f 90       	pop	r1
  fa:	18 95       	reti

000000fc <__vector_19>:

ISR (USART_UDRE_vect)
{
  fc:	1f 92       	push	r1
  fe:	0f 92       	push	r0
 100:	0f b6       	in	r0, 0x3f	; 63
 102:	0f 92       	push	r0
 104:	11 24       	eor	r1, r1
 106:	2f 93       	push	r18
 108:	3f 93       	push	r19
 10a:	4f 93       	push	r20
 10c:	5f 93       	push	r21
 10e:	6f 93       	push	r22
 110:	7f 93       	push	r23
 112:	8f 93       	push	r24
 114:	9f 93       	push	r25
 116:	af 93       	push	r26
 118:	bf 93       	push	r27
 11a:	ef 93       	push	r30
 11c:	ff 93       	push	r31
	static volatile uint8_t i = 0;
	static volatile uint8_t j = 0;
	if (bienvenida[i] != '\0')
 11e:	e0 91 eb 01 	lds	r30, 0x01EB	; 0x8001eb <i.2278>
 122:	f0 e0       	ldi	r31, 0x00	; 0
 124:	e0 50       	subi	r30, 0x00	; 0
 126:	ff 4f       	sbci	r31, 0xFF	; 255
 128:	80 81       	ld	r24, Z
 12a:	88 23       	and	r24, r24
 12c:	81 f0       	breq	.+32     	; 0x14e <__vector_19+0x52>
	{
		SerialPort_Wait_For_TX_Buffer_Free();
 12e:	0e 94 7b 01 	call	0x2f6	; 0x2f6 <SerialPort_Wait_For_TX_Buffer_Free>
		SerialPort_Send_Data(bienvenida[i]);
 132:	e0 91 eb 01 	lds	r30, 0x01EB	; 0x8001eb <i.2278>
 136:	f0 e0       	ldi	r31, 0x00	; 0
 138:	e0 50       	subi	r30, 0x00	; 0
 13a:	ff 4f       	sbci	r31, 0xFF	; 255
 13c:	80 81       	ld	r24, Z
 13e:	0e 94 81 01 	call	0x302	; 0x302 <SerialPort_Send_Data>
		i++;
 142:	80 91 eb 01 	lds	r24, 0x01EB	; 0x8001eb <i.2278>
 146:	8f 5f       	subi	r24, 0xFF	; 255
 148:	80 93 eb 01 	sts	0x01EB, r24	; 0x8001eb <i.2278>
 14c:	18 c0       	rjmp	.+48     	; 0x17e <__vector_19+0x82>
	}
	else
	{
		SerialPort_Send_Data('\r');
 14e:	8d e0       	ldi	r24, 0x0D	; 13
 150:	0e 94 81 01 	call	0x302	; 0x302 <SerialPort_Send_Data>
		SerialPort_Send_Data('\n');
 154:	8a e0       	ldi	r24, 0x0A	; 10
 156:	0e 94 81 01 	call	0x302	; 0x302 <SerialPort_Send_Data>
		i++;
 15a:	80 91 eb 01 	lds	r24, 0x01EB	; 0x8001eb <i.2278>
 15e:	8f 5f       	subi	r24, 0xFF	; 255
 160:	80 93 eb 01 	sts	0x01EB, r24	; 0x8001eb <i.2278>
		j++;
 164:	80 91 ea 01 	lds	r24, 0x01EA	; 0x8001ea <__data_end>
 168:	8f 5f       	subi	r24, 0xFF	; 255
 16a:	80 93 ea 01 	sts	0x01EA, r24	; 0x8001ea <__data_end>
		if (j == 3){
 16e:	80 91 ea 01 	lds	r24, 0x01EA	; 0x8001ea <__data_end>
 172:	83 30       	cpi	r24, 0x03	; 3
 174:	21 f4       	brne	.+8      	; 0x17e <__vector_19+0x82>
			SerialPort_TX_Interrupt_Disable();
 176:	0e 94 69 01 	call	0x2d2	; 0x2d2 <SerialPort_TX_Interrupt_Disable>
			SerialPort_RX_Interrupt_Enable();
 17a:	0e 94 6f 01 	call	0x2de	; 0x2de <SerialPort_RX_Interrupt_Enable>
		}
	}
}
 17e:	ff 91       	pop	r31
 180:	ef 91       	pop	r30
 182:	bf 91       	pop	r27
 184:	af 91       	pop	r26
 186:	9f 91       	pop	r25
 188:	8f 91       	pop	r24
 18a:	7f 91       	pop	r23
 18c:	6f 91       	pop	r22
 18e:	5f 91       	pop	r21
 190:	4f 91       	pop	r20
 192:	3f 91       	pop	r19
 194:	2f 91       	pop	r18
 196:	0f 90       	pop	r0
 198:	0f be       	out	0x3f, r0	; 63
 19a:	0f 90       	pop	r0
 19c:	1f 90       	pop	r1
 19e:	18 95       	reti

000001a0 <realizar_accion>:

void realizar_accion()
{
 1a0:	cf 93       	push	r28
 1a2:	df 93       	push	r29
 1a4:	cd b7       	in	r28, 0x3d	; 61
 1a6:	de b7       	in	r29, 0x3e	; 62
 1a8:	2b 97       	sbiw	r28, 0x0b	; 11
 1aa:	0f b6       	in	r0, 0x3f	; 63
 1ac:	f8 94       	cli
 1ae:	de bf       	out	0x3e, r29	; 62
 1b0:	0f be       	out	0x3f, r0	; 63
 1b2:	cd bf       	out	0x3d, r28	; 61
		SerialPort_RX_Interrupt_Disable();
 1b4:	0e 94 75 01 	call	0x2ea	; 0x2ea <SerialPort_RX_Interrupt_Disable>
		char reset[4] = "rst";
 1b8:	82 e7       	ldi	r24, 0x72	; 114
 1ba:	93 e7       	ldi	r25, 0x73	; 115
 1bc:	9a 83       	std	Y+2, r25	; 0x02
 1be:	89 83       	std	Y+1, r24	; 0x01
 1c0:	84 e7       	ldi	r24, 0x74	; 116
 1c2:	90 e0       	ldi	r25, 0x00	; 0
 1c4:	9c 83       	std	Y+4, r25	; 0x04
 1c6:	8b 83       	std	Y+3, r24	; 0x03
		char on[3] = "on";
 1c8:	8f e6       	ldi	r24, 0x6F	; 111
 1ca:	9e e6       	ldi	r25, 0x6E	; 110
 1cc:	9e 83       	std	Y+6, r25	; 0x06
 1ce:	8d 83       	std	Y+5, r24	; 0x05
 1d0:	1f 82       	std	Y+7, r1	; 0x07
		char off[4] = "off";
 1d2:	8f e6       	ldi	r24, 0x6F	; 111
 1d4:	96 e6       	ldi	r25, 0x66	; 102
 1d6:	99 87       	std	Y+9, r25	; 0x09
 1d8:	88 87       	std	Y+8, r24	; 0x08
 1da:	86 e6       	ldi	r24, 0x66	; 102
 1dc:	90 e0       	ldi	r25, 0x00	; 0
 1de:	9b 87       	std	Y+11, r25	; 0x0b
 1e0:	8a 87       	std	Y+10, r24	; 0x0a
		int nro = atoi(buffer);
 1e2:	8d ee       	ldi	r24, 0xED	; 237
 1e4:	91 e0       	ldi	r25, 0x01	; 1
 1e6:	0e 94 cf 01 	call	0x39e	; 0x39e <atoi>
 1ea:	9c 01       	movw	r18, r24
		
		if ((100 <= nro ) && (nro <= 10000))
 1ec:	84 56       	subi	r24, 0x64	; 100
 1ee:	91 09       	sbc	r25, r1
 1f0:	8d 3a       	cpi	r24, 0xAD	; 173
 1f2:	96 42       	sbci	r25, 0x26	; 38
 1f4:	88 f4       	brcc	.+34     	; 0x218 <realizar_accion+0x78>
		{
			OCR1A = 8000000UL/nro - 1;
 1f6:	03 2e       	mov	r0, r19
 1f8:	00 0c       	add	r0, r0
 1fa:	44 0b       	sbc	r20, r20
 1fc:	55 0b       	sbc	r21, r21
 1fe:	60 e0       	ldi	r22, 0x00	; 0
 200:	72 e1       	ldi	r23, 0x12	; 18
 202:	8a e7       	ldi	r24, 0x7A	; 122
 204:	90 e0       	ldi	r25, 0x00	; 0
 206:	0e 94 ad 01 	call	0x35a	; 0x35a <__udivmodsi4>
 20a:	21 50       	subi	r18, 0x01	; 1
 20c:	31 09       	sbc	r19, r1
 20e:	30 93 89 00 	sts	0x0089, r19	; 0x800089 <__DATA_REGION_ORIGIN__+0x29>
 212:	20 93 88 00 	sts	0x0088, r18	; 0x800088 <__DATA_REGION_ORIGIN__+0x28>
 216:	32 c0       	rjmp	.+100    	; 0x27c <realizar_accion+0xdc>
		}else if (!strcmp(buffer,reset))
 218:	be 01       	movw	r22, r28
 21a:	6f 5f       	subi	r22, 0xFF	; 255
 21c:	7f 4f       	sbci	r23, 0xFF	; 255
 21e:	8d ee       	ldi	r24, 0xED	; 237
 220:	91 e0       	ldi	r25, 0x01	; 1
 222:	0e 94 ed 01 	call	0x3da	; 0x3da <strcmp>
 226:	89 2b       	or	r24, r25
 228:	31 f4       	brne	.+12     	; 0x236 <realizar_accion+0x96>
			{
				DDRB = (0<<PB1); 
 22a:	14 b8       	out	0x04, r1	; 4
				SerialPort_Send_String("reset");
 22c:	88 ec       	ldi	r24, 0xC8	; 200
 22e:	91 e0       	ldi	r25, 0x01	; 1
 230:	0e 94 84 01 	call	0x308	; 0x308 <SerialPort_Send_String>
 234:	23 c0       	rjmp	.+70     	; 0x27c <realizar_accion+0xdc>
			}else if (!strcmp(buffer,on))
 236:	be 01       	movw	r22, r28
 238:	6b 5f       	subi	r22, 0xFB	; 251
 23a:	7f 4f       	sbci	r23, 0xFF	; 255
 23c:	8d ee       	ldi	r24, 0xED	; 237
 23e:	91 e0       	ldi	r25, 0x01	; 1
 240:	0e 94 ed 01 	call	0x3da	; 0x3da <strcmp>
 244:	89 2b       	or	r24, r25
 246:	39 f4       	brne	.+14     	; 0x256 <realizar_accion+0xb6>
				{
					DDRB = (1<<PB1); 
 248:	82 e0       	ldi	r24, 0x02	; 2
 24a:	84 b9       	out	0x04, r24	; 4
					SerialPort_Send_String("prendido \n");
 24c:	8e ec       	ldi	r24, 0xCE	; 206
 24e:	91 e0       	ldi	r25, 0x01	; 1
 250:	0e 94 84 01 	call	0x308	; 0x308 <SerialPort_Send_String>
 254:	13 c0       	rjmp	.+38     	; 0x27c <realizar_accion+0xdc>
				}else if (!strcmp(buffer,off))
 256:	be 01       	movw	r22, r28
 258:	68 5f       	subi	r22, 0xF8	; 248
 25a:	7f 4f       	sbci	r23, 0xFF	; 255
 25c:	8d ee       	ldi	r24, 0xED	; 237
 25e:	91 e0       	ldi	r25, 0x01	; 1
 260:	0e 94 ed 01 	call	0x3da	; 0x3da <strcmp>
 264:	89 2b       	or	r24, r25
 266:	31 f4       	brne	.+12     	; 0x274 <realizar_accion+0xd4>
					{
						DDRB = (0<<PB1);  
 268:	14 b8       	out	0x04, r1	; 4
						SerialPort_Send_String("apagado \n");
 26a:	89 ed       	ldi	r24, 0xD9	; 217
 26c:	91 e0       	ldi	r25, 0x01	; 1
 26e:	0e 94 84 01 	call	0x308	; 0x308 <SerialPort_Send_String>
 272:	04 c0       	rjmp	.+8      	; 0x27c <realizar_accion+0xdc>
					}else 
						{
						SerialPort_Send_String("pija \r");
 274:	83 ee       	ldi	r24, 0xE3	; 227
 276:	91 e0       	ldi	r25, 0x01	; 1
 278:	0e 94 84 01 	call	0x308	; 0x308 <SerialPort_Send_String>
						}
		SerialPort_RX_Interrupt_Enable();
 27c:	0e 94 6f 01 	call	0x2de	; 0x2de <SerialPort_RX_Interrupt_Enable>
}
 280:	2b 96       	adiw	r28, 0x0b	; 11
 282:	0f b6       	in	r0, 0x3f	; 63
 284:	f8 94       	cli
 286:	de bf       	out	0x3e, r29	; 62
 288:	0f be       	out	0x3f, r0	; 63
 28a:	cd bf       	out	0x3d, r28	; 61
 28c:	df 91       	pop	r29
 28e:	cf 91       	pop	r28
 290:	08 95       	ret

00000292 <Timer1_Init>:

void Timer1_Init(void){
	DDRB = (1<<PB1);                        //PB1 Salida
 292:	82 e0       	ldi	r24, 0x02	; 2
 294:	84 b9       	out	0x04, r24	; 4
	TCCR1A=  (1<< COM1A0);                    //COM1A  = Toggle
 296:	80 e4       	ldi	r24, 0x40	; 64
 298:	80 93 80 00 	sts	0x0080, r24	; 0x800080 <__DATA_REGION_ORIGIN__+0x20>
	TCCR1B=(1<<WGM12) | (1<<CS10);            //CTC no prescalar
 29c:	89 e0       	ldi	r24, 0x09	; 9
 29e:	80 93 81 00 	sts	0x0081, r24	; 0x800081 <__DATA_REGION_ORIGIN__+0x21>
 2a2:	08 95       	ret

000002a4 <main>:
void Timer1_Init(void);
int main (void)
{

	//DDRB = 0xFF; //Port B is output
	UCSR0B = (1<<RXEN0) | (1<<TXEN0);//activo recepcion y transmision
 2a4:	88 e1       	ldi	r24, 0x18	; 24
 2a6:	80 93 c1 00 	sts	0x00C1, r24	; 0x8000c1 <__DATA_REGION_ORIGIN__+0x61>
	UCSR0C = (1<<UCSZ01)|(1<<UCSZ00);//tamanio info
 2aa:	86 e0       	ldi	r24, 0x06	; 6
 2ac:	80 93 c2 00 	sts	0x00C2, r24	; 0x8000c2 <__DATA_REGION_ORIGIN__+0x62>
	UBRR0L = 103;
 2b0:	87 e6       	ldi	r24, 0x67	; 103
 2b2:	80 93 c4 00 	sts	0x00C4, r24	; 0x8000c4 <__DATA_REGION_ORIGIN__+0x64>
	Timer1_Init();
 2b6:	0e 94 49 01 	call	0x292	; 0x292 <Timer1_Init>
	//SerialPort_TX_Interrupt_Enable();
	SerialPort_RX_Interrupt_Enable();
 2ba:	0e 94 6f 01 	call	0x2de	; 0x2de <SerialPort_RX_Interrupt_Enable>
	sei();
 2be:	78 94       	sei
	while(1)
	{
			if (accion_flag == 1)
 2c0:	80 91 01 02 	lds	r24, 0x0201	; 0x800201 <accion_flag>
 2c4:	81 30       	cpi	r24, 0x01	; 1
 2c6:	e1 f7       	brne	.-8      	; 0x2c0 <main+0x1c>
			{
				accion_flag = 0;
 2c8:	10 92 01 02 	sts	0x0201, r1	; 0x800201 <accion_flag>
				realizar_accion();
 2cc:	0e 94 d0 00 	call	0x1a0	; 0x1a0 <realizar_accion>
 2d0:	f7 cf       	rjmp	.-18     	; 0x2c0 <main+0x1c>

000002d2 <SerialPort_TX_Interrupt_Disable>:


// Inicialización de Receptor

void SerialPort_RX_Enable(void){
	UCSR0B |= (1<<RXEN0);
 2d2:	e1 ec       	ldi	r30, 0xC1	; 193
 2d4:	f0 e0       	ldi	r31, 0x00	; 0
 2d6:	80 81       	ld	r24, Z
 2d8:	8f 7d       	andi	r24, 0xDF	; 223
 2da:	80 83       	st	Z, r24
 2dc:	08 95       	ret

000002de <SerialPort_RX_Interrupt_Enable>:
}

void SerialPort_RX_Interrupt_Enable(void){
	UCSR0B |= (1<<RXCIE0);
 2de:	e1 ec       	ldi	r30, 0xC1	; 193
 2e0:	f0 e0       	ldi	r31, 0x00	; 0
 2e2:	80 81       	ld	r24, Z
 2e4:	80 68       	ori	r24, 0x80	; 128
 2e6:	80 83       	st	Z, r24
 2e8:	08 95       	ret

000002ea <SerialPort_RX_Interrupt_Disable>:
}
void SerialPort_RX_Interrupt_Disable(void){
	UCSR0B &= ~(1<<RXCIE0);
 2ea:	e1 ec       	ldi	r30, 0xC1	; 193
 2ec:	f0 e0       	ldi	r31, 0x00	; 0
 2ee:	80 81       	ld	r24, Z
 2f0:	8f 77       	andi	r24, 0x7F	; 127
 2f2:	80 83       	st	Z, r24
 2f4:	08 95       	ret

000002f6 <SerialPort_Wait_For_TX_Buffer_Free>:
// Transmisión

// Espera hasta que el buffer de TX este libre.
void SerialPort_Wait_For_TX_Buffer_Free(void){
	// Pooling - Bloqueante hasta que termine de transmitir.
	while(!(UCSR0A & (1<<UDRE0)));
 2f6:	e0 ec       	ldi	r30, 0xC0	; 192
 2f8:	f0 e0       	ldi	r31, 0x00	; 0
 2fa:	80 81       	ld	r24, Z
 2fc:	85 ff       	sbrs	r24, 5
 2fe:	fd cf       	rjmp	.-6      	; 0x2fa <SerialPort_Wait_For_TX_Buffer_Free+0x4>
}
 300:	08 95       	ret

00000302 <SerialPort_Send_Data>:

void SerialPort_Send_Data(char data){
	UDR0 = data;
 302:	80 93 c6 00 	sts	0x00C6, r24	; 0x8000c6 <__DATA_REGION_ORIGIN__+0x66>
 306:	08 95       	ret

00000308 <SerialPort_Send_String>:
}

void SerialPort_Send_String(char * msg){ //msg -> "Hola como andan hoy?" 20 ASCII+findecadena, tardo=20ms
 308:	cf 92       	push	r12
 30a:	df 92       	push	r13
 30c:	ef 92       	push	r14
 30e:	ff 92       	push	r15
 310:	0f 93       	push	r16
 312:	1f 93       	push	r17
 314:	cf 93       	push	r28
	uint8_t i = 0;
	//'\0' = 0x00
	while(msg[i]){ // *(msg+i)
 316:	fc 01       	movw	r30, r24
 318:	20 81       	ld	r18, Z
 31a:	22 23       	and	r18, r18
 31c:	b1 f0       	breq	.+44     	; 0x34a <SerialPort_Send_String+0x42>
 31e:	7c 01       	movw	r14, r24
 320:	8c 01       	movw	r16, r24
 322:	c0 e0       	ldi	r28, 0x00	; 0
	// Pooling - Bloqueante hasta que termine de transmitir.
	while(!(UCSR0A & (1<<UDRE0)));
}

void SerialPort_Send_Data(char data){
	UDR0 = data;
 324:	0f 2e       	mov	r0, r31
 326:	f6 ec       	ldi	r31, 0xC6	; 198
 328:	cf 2e       	mov	r12, r31
 32a:	d1 2c       	mov	r13, r1
 32c:	f0 2d       	mov	r31, r0

void SerialPort_Send_String(char * msg){ //msg -> "Hola como andan hoy?" 20 ASCII+findecadena, tardo=20ms
	uint8_t i = 0;
	//'\0' = 0x00
	while(msg[i]){ // *(msg+i)
		SerialPort_Wait_For_TX_Buffer_Free(); //9600bps formato 8N1, 10bits, 10.Tbit=10/9600=1ms 
 32e:	0e 94 7b 01 	call	0x2f6	; 0x2f6 <SerialPort_Wait_For_TX_Buffer_Free>
		SerialPort_Send_Data(msg[i]);
 332:	f8 01       	movw	r30, r16
 334:	90 81       	ld	r25, Z
	// Pooling - Bloqueante hasta que termine de transmitir.
	while(!(UCSR0A & (1<<UDRE0)));
}

void SerialPort_Send_Data(char data){
	UDR0 = data;
 336:	f6 01       	movw	r30, r12
 338:	90 83       	st	Z, r25
	uint8_t i = 0;
	//'\0' = 0x00
	while(msg[i]){ // *(msg+i)
		SerialPort_Wait_For_TX_Buffer_Free(); //9600bps formato 8N1, 10bits, 10.Tbit=10/9600=1ms 
		SerialPort_Send_Data(msg[i]);
		i++;
 33a:	cf 5f       	subi	r28, 0xFF	; 255
}

void SerialPort_Send_String(char * msg){ //msg -> "Hola como andan hoy?" 20 ASCII+findecadena, tardo=20ms
	uint8_t i = 0;
	//'\0' = 0x00
	while(msg[i]){ // *(msg+i)
 33c:	87 01       	movw	r16, r14
 33e:	0c 0f       	add	r16, r28
 340:	11 1d       	adc	r17, r1
 342:	f8 01       	movw	r30, r16
 344:	90 81       	ld	r25, Z
 346:	91 11       	cpse	r25, r1
 348:	f2 cf       	rjmp	.-28     	; 0x32e <SerialPort_Send_String+0x26>
		SerialPort_Wait_For_TX_Buffer_Free(); //9600bps formato 8N1, 10bits, 10.Tbit=10/9600=1ms 
		SerialPort_Send_Data(msg[i]);
		i++;
	}
}
 34a:	cf 91       	pop	r28
 34c:	1f 91       	pop	r17
 34e:	0f 91       	pop	r16
 350:	ff 90       	pop	r15
 352:	ef 90       	pop	r14
 354:	df 90       	pop	r13
 356:	cf 90       	pop	r12
 358:	08 95       	ret

0000035a <__udivmodsi4>:
 35a:	a1 e2       	ldi	r26, 0x21	; 33
 35c:	1a 2e       	mov	r1, r26
 35e:	aa 1b       	sub	r26, r26
 360:	bb 1b       	sub	r27, r27
 362:	fd 01       	movw	r30, r26
 364:	0d c0       	rjmp	.+26     	; 0x380 <__udivmodsi4_ep>

00000366 <__udivmodsi4_loop>:
 366:	aa 1f       	adc	r26, r26
 368:	bb 1f       	adc	r27, r27
 36a:	ee 1f       	adc	r30, r30
 36c:	ff 1f       	adc	r31, r31
 36e:	a2 17       	cp	r26, r18
 370:	b3 07       	cpc	r27, r19
 372:	e4 07       	cpc	r30, r20
 374:	f5 07       	cpc	r31, r21
 376:	20 f0       	brcs	.+8      	; 0x380 <__udivmodsi4_ep>
 378:	a2 1b       	sub	r26, r18
 37a:	b3 0b       	sbc	r27, r19
 37c:	e4 0b       	sbc	r30, r20
 37e:	f5 0b       	sbc	r31, r21

00000380 <__udivmodsi4_ep>:
 380:	66 1f       	adc	r22, r22
 382:	77 1f       	adc	r23, r23
 384:	88 1f       	adc	r24, r24
 386:	99 1f       	adc	r25, r25
 388:	1a 94       	dec	r1
 38a:	69 f7       	brne	.-38     	; 0x366 <__udivmodsi4_loop>
 38c:	60 95       	com	r22
 38e:	70 95       	com	r23
 390:	80 95       	com	r24
 392:	90 95       	com	r25
 394:	9b 01       	movw	r18, r22
 396:	ac 01       	movw	r20, r24
 398:	bd 01       	movw	r22, r26
 39a:	cf 01       	movw	r24, r30
 39c:	08 95       	ret

0000039e <atoi>:
 39e:	fc 01       	movw	r30, r24
 3a0:	88 27       	eor	r24, r24
 3a2:	99 27       	eor	r25, r25
 3a4:	e8 94       	clt
 3a6:	21 91       	ld	r18, Z+
 3a8:	20 32       	cpi	r18, 0x20	; 32
 3aa:	e9 f3       	breq	.-6      	; 0x3a6 <atoi+0x8>
 3ac:	29 30       	cpi	r18, 0x09	; 9
 3ae:	10 f0       	brcs	.+4      	; 0x3b4 <atoi+0x16>
 3b0:	2e 30       	cpi	r18, 0x0E	; 14
 3b2:	c8 f3       	brcs	.-14     	; 0x3a6 <atoi+0x8>
 3b4:	2b 32       	cpi	r18, 0x2B	; 43
 3b6:	41 f0       	breq	.+16     	; 0x3c8 <atoi+0x2a>
 3b8:	2d 32       	cpi	r18, 0x2D	; 45
 3ba:	39 f4       	brne	.+14     	; 0x3ca <atoi+0x2c>
 3bc:	68 94       	set
 3be:	04 c0       	rjmp	.+8      	; 0x3c8 <atoi+0x2a>
 3c0:	0e 94 f6 01 	call	0x3ec	; 0x3ec <__mulhi_const_10>
 3c4:	82 0f       	add	r24, r18
 3c6:	91 1d       	adc	r25, r1
 3c8:	21 91       	ld	r18, Z+
 3ca:	20 53       	subi	r18, 0x30	; 48
 3cc:	2a 30       	cpi	r18, 0x0A	; 10
 3ce:	c0 f3       	brcs	.-16     	; 0x3c0 <atoi+0x22>
 3d0:	1e f4       	brtc	.+6      	; 0x3d8 <atoi+0x3a>
 3d2:	90 95       	com	r25
 3d4:	81 95       	neg	r24
 3d6:	9f 4f       	sbci	r25, 0xFF	; 255
 3d8:	08 95       	ret

000003da <strcmp>:
 3da:	fb 01       	movw	r30, r22
 3dc:	dc 01       	movw	r26, r24
 3de:	8d 91       	ld	r24, X+
 3e0:	01 90       	ld	r0, Z+
 3e2:	80 19       	sub	r24, r0
 3e4:	01 10       	cpse	r0, r1
 3e6:	d9 f3       	breq	.-10     	; 0x3de <strcmp+0x4>
 3e8:	99 0b       	sbc	r25, r25
 3ea:	08 95       	ret

000003ec <__mulhi_const_10>:
 3ec:	7a e0       	ldi	r23, 0x0A	; 10
 3ee:	97 9f       	mul	r25, r23
 3f0:	90 2d       	mov	r25, r0
 3f2:	87 9f       	mul	r24, r23
 3f4:	80 2d       	mov	r24, r0
 3f6:	91 0d       	add	r25, r1
 3f8:	11 24       	eor	r1, r1
 3fa:	08 95       	ret

000003fc <_exit>:
 3fc:	f8 94       	cli

000003fe <__stop_program>:
 3fe:	ff cf       	rjmp	.-2      	; 0x3fe <__stop_program>
